---
triple:          'arm64-apple-darwin'
binary-path:     main
relocations:
  - { offsetInCU: 0x2DE0, offset: 0x2DE0, size: 0x8, addend: 0x0, symName: __ZNSt3__124__put_character_sequenceB7v160006IcNS_11char_traitsIcEEEERNS_13basic_ostreamIT_T0_EES7_PKS4_m, symObjAddr: 0x1F00, symBinAddr: 0x100002EC8, symSize: 0x1F4 }
  - { offsetInCU: 0x4717, offset: 0x4717, size: 0x8, addend: 0x0, symName: __ZNSt3__1lsB7v160006INS_11char_traitsIcEEEERNS_13basic_ostreamIcT_EES6_PKc, symObjAddr: 0x1110, symBinAddr: 0x1000020D8, symSize: 0x48 }
  - { offsetInCU: 0x475D, offset: 0x475D, size: 0x8, addend: 0x0, symName: __ZNSt3__14endlB7v160006IcNS_11char_traitsIcEEEERNS_13basic_ostreamIT_T0_EES7_, symObjAddr: 0x1184, symBinAddr: 0x10000214C, symSize: 0x58 }
  - { offsetInCU: 0x479D, offset: 0x479D, size: 0x8, addend: 0x0, symName: __ZNSt3__1lsB7v160006IcNS_11char_traitsIcEENS_9allocatorIcEEEERNS_13basic_ostreamIT_T0_EES9_RKNS_12basic_stringIS6_S7_T1_EE, symObjAddr: 0x11DC, symBinAddr: 0x1000021A4, symSize: 0x4C }
  - { offsetInCU: 0x47F5, offset: 0x47F5, size: 0x8, addend: 0x0, symName: __ZNSt3__119__debug_db_insert_cB7v160006INS_12basic_stringIcNS_11char_traitsIcEENS_9allocatorIcEEEEEEvPT_, symObjAddr: 0x18E0, symBinAddr: 0x1000028A8, symSize: 0x10 }
  - { offsetInCU: 0x4826, offset: 0x4826, size: 0x8, addend: 0x0, symName: __ZNSt3__130__libcpp_is_constant_evaluatedB7v160006Ev, symObjAddr: 0x1A80, symBinAddr: 0x100002A48, symSize: 0xC }
  - { offsetInCU: 0x4843, offset: 0x4843, size: 0x8, addend: 0x0, symName: __ZNSt3__117__libcpp_allocateB7v160006Emm, symObjAddr: 0x1D78, symBinAddr: 0x100002D40, symSize: 0x28 }
  - { offsetInCU: 0x4880, offset: 0x4880, size: 0x8, addend: 0x0, symName: __ZNSt3__121__libcpp_operator_newB7v160006IJmEEEPvDpT_, symObjAddr: 0x1DB4, symBinAddr: 0x100002D7C, symSize: 0x24 }
  - { offsetInCU: 0x48B9, offset: 0x48B9, size: 0x8, addend: 0x0, symName: __ZNSt3__19use_facetB7v160006INS_5ctypeIcEEEERKT_RKNS_6localeE, symObjAddr: 0x1E9C, symBinAddr: 0x100002E64, symSize: 0x2C }
  - { offsetInCU: 0x4D88, offset: 0x4D88, size: 0x8, addend: 0x0, symName: __ZNSt3__116__pad_and_outputB7v160006IcNS_11char_traitsIcEEEENS_19ostreambuf_iteratorIT_T0_EES6_PKS4_S8_S8_RNS_8ios_baseES4_, symObjAddr: 0x2158, symBinAddr: 0x100003120, symSize: 0x248 }
  - { offsetInCU: 0x4E57, offset: 0x4E57, size: 0x8, addend: 0x0, symName: __ZNSt3__112__to_addressB7v160006IKcEEPT_S3_, symObjAddr: 0x25D8, symBinAddr: 0x1000035A0, symSize: 0x14 }
  - { offsetInCU: 0x4EBF, offset: 0x4EBF, size: 0x8, addend: 0x0, symName: __ZNSt3__118__constexpr_strlenB7v160006EPKc, symObjAddr: 0x2858, symBinAddr: 0x100003820, symSize: 0x24 }
  - { offsetInCU: 0x4EEC, offset: 0x4EEC, size: 0x8, addend: 0x0, symName: __ZSt28__throw_bad_array_new_lengthB7v160006v, symObjAddr: 0x1D44, symBinAddr: 0x100002D0C, symSize: 0x34 }
  - { offsetInCU: 0x73D3, offset: 0x73D3, size: 0x8, addend: 0x0, symName: __ZN6ClientC2ENSt3__112basic_stringIcNS0_11char_traitsIcEENS0_9allocatorIcEEEEi, symObjAddr: 0x0, symBinAddr: 0x100000FC8, symSize: 0x7C }
  - { offsetInCU: 0x7419, offset: 0x7419, size: 0x8, addend: 0x0, symName: __ZNSt3__112basic_stringIcNS_11char_traitsIcEENS_9allocatorIcEEEC1B7v160006Ev, symObjAddr: 0x7C, symBinAddr: 0x100001044, symSize: 0x2C }
  - { offsetInCU: 0x7441, offset: 0x7441, size: 0x8, addend: 0x0, symName: __ZN6ClientC1ENSt3__112basic_stringIcNS0_11char_traitsIcEENS0_9allocatorIcEEEEi, symObjAddr: 0xB4, symBinAddr: 0x10000107C, symSize: 0x3C }
  - { offsetInCU: 0x7618, offset: 0x7618, size: 0x8, addend: 0x0, symName: __ZN7AccountC2EiP6Client, symObjAddr: 0xF0, symBinAddr: 0x1000010B8, symSize: 0x44 }
  - { offsetInCU: 0x765D, offset: 0x765D, size: 0x8, addend: 0x0, symName: __ZN7AccountC1EiP6Client, symObjAddr: 0x134, symBinAddr: 0x1000010FC, symSize: 0x3C }
  - { offsetInCU: 0x76A2, offset: 0x76A2, size: 0x8, addend: 0x0, symName: __ZN7AccountC2EiP6ClientS1_, symObjAddr: 0x170, symBinAddr: 0x100001138, symSize: 0x4C }
  - { offsetInCU: 0x76F5, offset: 0x76F5, size: 0x8, addend: 0x0, symName: __ZN7AccountC1EiP6ClientS1_, symObjAddr: 0x1BC, symBinAddr: 0x100001184, symSize: 0x44 }
  - { offsetInCU: 0x7748, offset: 0x7748, size: 0x8, addend: 0x0, symName: __ZN7AccountC2EiP6Clientd, symObjAddr: 0x200, symBinAddr: 0x1000011C8, symSize: 0x44 }
  - { offsetInCU: 0x779B, offset: 0x779B, size: 0x8, addend: 0x0, symName: __ZN7AccountC1EiP6Clientd, symObjAddr: 0x244, symBinAddr: 0x10000120C, symSize: 0x44 }
  - { offsetInCU: 0x77EE, offset: 0x77EE, size: 0x8, addend: 0x0, symName: __ZN7AccountC2EiP6ClientS1_d, symObjAddr: 0x288, symBinAddr: 0x100001250, symSize: 0x4C }
  - { offsetInCU: 0x784F, offset: 0x784F, size: 0x8, addend: 0x0, symName: __ZN7AccountC1EiP6ClientS1_d, symObjAddr: 0x2D4, symBinAddr: 0x10000129C, symSize: 0x4C }
  - { offsetInCU: 0x78B0, offset: 0x78B0, size: 0x8, addend: 0x0, symName: __ZN7Account11canWithdrawEd, symObjAddr: 0x320, symBinAddr: 0x1000012E8, symSize: 0x2C }
  - { offsetInCU: 0x78E3, offset: 0x78E3, size: 0x8, addend: 0x0, symName: __ZN7Account7DepositEd, symObjAddr: 0x34C, symBinAddr: 0x100001314, symSize: 0x28 }
  - { offsetInCU: 0x7916, offset: 0x7916, size: 0x8, addend: 0x0, symName: __ZN7Account8WithdrawEd, symObjAddr: 0x374, symBinAddr: 0x10000133C, symSize: 0x7C }
  - { offsetInCU: 0x7949, offset: 0x7949, size: 0x8, addend: 0x0, symName: __ZN7Account11addInterestEv, symObjAddr: 0x3F0, symBinAddr: 0x1000013B8, symSize: 0x28 }
  - { offsetInCU: 0x7B08, offset: 0x7B08, size: 0x8, addend: 0x0, symName: __ZN4BankC2Eii, symObjAddr: 0x418, symBinAddr: 0x1000013E0, symSize: 0xD0 }
  - { offsetInCU: 0x7B4D, offset: 0x7B4D, size: 0x8, addend: 0x0, symName: __ZN4BankC1Eii, symObjAddr: 0x4E8, symBinAddr: 0x1000014B0, symSize: 0x3C }
  - { offsetInCU: 0x7B92, offset: 0x7B92, size: 0x8, addend: 0x0, symName: __ZN4BankD2Ev, symObjAddr: 0x524, symBinAddr: 0x1000014EC, symSize: 0x218 }
  - { offsetInCU: 0x7BEC, offset: 0x7BEC, size: 0x8, addend: 0x0, symName: __ZN6ClientD1Ev, symObjAddr: 0x73C, symBinAddr: 0x100001704, symSize: 0x2C }
  - { offsetInCU: 0x7C15, offset: 0x7C15, size: 0x8, addend: 0x0, symName: __ZN4BankD1Ev, symObjAddr: 0x768, symBinAddr: 0x100001730, symSize: 0x2C }
  - { offsetInCU: 0x7C3E, offset: 0x7C3E, size: 0x8, addend: 0x0, symName: __ZN4Bank9getClientEi, symObjAddr: 0x794, symBinAddr: 0x10000175C, symSize: 0xAC }
  - { offsetInCU: 0x7C8E, offset: 0x7C8E, size: 0x8, addend: 0x0, symName: __ZN6Client7getCodeEv, symObjAddr: 0x840, symBinAddr: 0x100001808, symSize: 0x18 }
  - { offsetInCU: 0x7CB2, offset: 0x7CB2, size: 0x8, addend: 0x0, symName: __ZN4Bank10getAccountEi, symObjAddr: 0x858, symBinAddr: 0x100001820, symSize: 0xAC }
  - { offsetInCU: 0x7D02, offset: 0x7D02, size: 0x8, addend: 0x0, symName: __ZN7Account9getNumberEv, symObjAddr: 0x904, symBinAddr: 0x1000018CC, symSize: 0x18 }
  - { offsetInCU: 0x7D26, offset: 0x7D26, size: 0x8, addend: 0x0, symName: __ZN4Bank12createClientEiNSt3__112basic_stringIcNS0_11char_traitsIcEENS0_9allocatorIcEEEE, symObjAddr: 0x91C, symBinAddr: 0x1000018E4, symSize: 0x140 }
  - { offsetInCU: 0x7D68, offset: 0x7D68, size: 0x8, addend: 0x0, symName: __ZN4Bank13createAccountEiP6Client, symObjAddr: 0xA5C, symBinAddr: 0x100001A24, symSize: 0xA0 }
  - { offsetInCU: 0x7DA9, offset: 0x7DA9, size: 0x8, addend: 0x0, symName: __ZN4Bank13createAccountEiP6ClientS1_, symObjAddr: 0xAFC, symBinAddr: 0x100001AC4, symSize: 0xA8 }
  - { offsetInCU: 0x7DF8, offset: 0x7DF8, size: 0x8, addend: 0x0, symName: __ZN4Bank13createAccountEiP6Clientd, symObjAddr: 0xBA4, symBinAddr: 0x100001B6C, symSize: 0xA8 }
  - { offsetInCU: 0x7E47, offset: 0x7E47, size: 0x8, addend: 0x0, symName: __ZN4Bank13createAccountEiP6ClientS1_d, symObjAddr: 0xC4C, symBinAddr: 0x100001C14, symSize: 0xB0 }
  - { offsetInCU: 0x7EA4, offset: 0x7EA4, size: 0x8, addend: 0x0, symName: __ZN4Bank11addInterestEv, symObjAddr: 0xCFC, symBinAddr: 0x100001CC4, symSize: 0x70 }
  - { offsetInCU: 0x7EE5, offset: 0x7EE5, size: 0x8, addend: 0x0, symName: __ZN4Bank11print_statsEv, symObjAddr: 0xD6C, symBinAddr: 0x100001D34, symSize: 0x3A4 }
  - { offsetInCU: 0x7F3C, offset: 0x7F3C, size: 0x8, addend: 0x0, symName: __ZNSt3__113basic_ostreamIcNS_11char_traitsIcEEElsB7v160006EPFRS3_S4_E, symObjAddr: 0x1158, symBinAddr: 0x100002120, symSize: 0x2C }
  - { offsetInCU: 0x7F6F, offset: 0x7F6F, size: 0x8, addend: 0x0, symName: __ZN7Account10getBalanceEv, symObjAddr: 0x1228, symBinAddr: 0x1000021F0, symSize: 0x18 }
  - { offsetInCU: 0x7F94, offset: 0x7F94, size: 0x8, addend: 0x0, symName: __ZN7Account15getInterestRateEv, symObjAddr: 0x1240, symBinAddr: 0x100002208, symSize: 0x18 }
  - { offsetInCU: 0x7FB9, offset: 0x7FB9, size: 0x8, addend: 0x0, symName: __ZN7Account8getOwnerEv, symObjAddr: 0x1258, symBinAddr: 0x100002220, symSize: 0x18 }
  - { offsetInCU: 0x7FDE, offset: 0x7FDE, size: 0x8, addend: 0x0, symName: __ZN6Client7getNameEv, symObjAddr: 0x1270, symBinAddr: 0x100002238, symSize: 0x38 }
  - { offsetInCU: 0x8003, offset: 0x8003, size: 0x8, addend: 0x0, symName: __ZN7Account10getPartnerEv, symObjAddr: 0x12A8, symBinAddr: 0x100002270, symSize: 0x18 }
  - { offsetInCU: 0x8028, offset: 0x8028, size: 0x8, addend: 0x0, symName: _main, symObjAddr: 0x12C0, symBinAddr: 0x100002288, symSize: 0x540 }
  - { offsetInCU: 0x806A, offset: 0x806A, size: 0x8, addend: 0x0, symName: __ZNSt3__112basic_stringIcNS_11char_traitsIcEENS_9allocatorIcEEEC1B7v160006IDnEEPKc, symObjAddr: 0x1800, symBinAddr: 0x1000027C8, symSize: 0x34 }
  - { offsetInCU: 0x80A7, offset: 0x80A7, size: 0x8, addend: 0x0, symName: __ZN6ClientD2Ev, symObjAddr: 0x1834, symBinAddr: 0x1000027FC, symSize: 0x2C }
  - { offsetInCU: 0x80D0, offset: 0x80D0, size: 0x8, addend: 0x0, symName: __ZNSt3__112basic_stringIcNS_11char_traitsIcEENS_9allocatorIcEEEC2B7v160006Ev, symObjAddr: 0x1860, symBinAddr: 0x100002828, symSize: 0x44 }
  - { offsetInCU: 0x80FD, offset: 0x80FD, size: 0x8, addend: 0x0, symName: __ZNSt3__117__compressed_pairINS_12basic_stringIcNS_11char_traitsIcEENS_9allocatorIcEEE5__repES5_EC1B7v160006INS_18__default_init_tagESA_EEOT_OT0_, symObjAddr: 0x18A4, symBinAddr: 0x10000286C, symSize: 0x3C }
  - { offsetInCU: 0x8154, offset: 0x8154, size: 0x8, addend: 0x0, symName: __ZNSt3__112basic_stringIcNS_11char_traitsIcEENS_9allocatorIcEEE14__default_initB7v160006Ev, symObjAddr: 0x18F0, symBinAddr: 0x1000028B8, symSize: 0xB0 }
  - { offsetInCU: 0x81A4, offset: 0x81A4, size: 0x8, addend: 0x0, symName: __ZNSt3__117__compressed_pairINS_12basic_stringIcNS_11char_traitsIcEENS_9allocatorIcEEE5__repES5_EC2B7v160006INS_18__default_init_tagESA_EEOT_OT0_, symObjAddr: 0x19A0, symBinAddr: 0x100002968, symSize: 0x3C }
  - { offsetInCU: 0x81FB, offset: 0x81FB, size: 0x8, addend: 0x0, symName: __ZNSt3__122__compressed_pair_elemINS_12basic_stringIcNS_11char_traitsIcEENS_9allocatorIcEEE5__repELi0ELb0EEC2B7v160006ENS_18__default_init_tagE, symObjAddr: 0x19DC, symBinAddr: 0x1000029A4, symSize: 0x14 }
  - { offsetInCU: 0x822E, offset: 0x822E, size: 0x8, addend: 0x0, symName: __ZNSt3__122__compressed_pair_elemINS_9allocatorIcEELi1ELb1EEC2B7v160006ENS_18__default_init_tagE, symObjAddr: 0x19F0, symBinAddr: 0x1000029B8, symSize: 0x2C }
  - { offsetInCU: 0x8261, offset: 0x8261, size: 0x8, addend: 0x0, symName: __ZNSt3__19allocatorIcEC2B7v160006Ev, symObjAddr: 0x1A1C, symBinAddr: 0x1000029E4, symSize: 0x2C }
  - { offsetInCU: 0x828A, offset: 0x828A, size: 0x8, addend: 0x0, symName: __ZNSt3__116__non_trivial_ifILb1ENS_9allocatorIcEEEC2B7v160006Ev, symObjAddr: 0x1A48, symBinAddr: 0x100002A10, symSize: 0x14 }
  - { offsetInCU: 0x82B3, offset: 0x82B3, size: 0x8, addend: 0x0, symName: __ZNSt3__117__compressed_pairINS_12basic_stringIcNS_11char_traitsIcEENS_9allocatorIcEEE5__repES5_E5firstB7v160006Ev, symObjAddr: 0x1A5C, symBinAddr: 0x100002A24, symSize: 0x24 }
  - { offsetInCU: 0x82D8, offset: 0x82D8, size: 0x8, addend: 0x0, symName: __ZNSt3__112basic_stringIcNS_11char_traitsIcEENS_9allocatorIcEEE11__recommendB7v160006Em, symObjAddr: 0x1A8C, symBinAddr: 0x100002A54, symSize: 0x9C }
  - { offsetInCU: 0x830B, offset: 0x830B, size: 0x8, addend: 0x0, symName: __ZNSt3__116allocator_traitsINS_9allocatorIcEEE8allocateB7v160006ERS2_m, symObjAddr: 0x1B28, symBinAddr: 0x100002AF0, symSize: 0x2C }
  - { offsetInCU: 0x833E, offset: 0x833E, size: 0x8, addend: 0x0, symName: __ZNSt3__112basic_stringIcNS_11char_traitsIcEENS_9allocatorIcEEE7__allocB7v160006Ev, symObjAddr: 0x1B54, symBinAddr: 0x100002B1C, symSize: 0x24 }
  - { offsetInCU: 0x8363, offset: 0x8363, size: 0x8, addend: 0x0, symName: __ZNSt3__112basic_stringIcNS_11char_traitsIcEENS_9allocatorIcEEE16__begin_lifetimeB7v160006EPcm, symObjAddr: 0x1B78, symBinAddr: 0x100002B40, symSize: 0x14 }
  - { offsetInCU: 0x8396, offset: 0x8396, size: 0x8, addend: 0x0, symName: __ZNSt3__112basic_stringIcNS_11char_traitsIcEENS_9allocatorIcEEE18__set_long_pointerB7v160006EPc, symObjAddr: 0x1B8C, symBinAddr: 0x100002B54, symSize: 0x38 }
  - { offsetInCU: 0x83CA, offset: 0x83CA, size: 0x8, addend: 0x0, symName: __ZNSt3__112basic_stringIcNS_11char_traitsIcEENS_9allocatorIcEEE14__set_long_capB7v160006Em, symObjAddr: 0x1BC4, symBinAddr: 0x100002B8C, symSize: 0x70 }
  - { offsetInCU: 0x83FE, offset: 0x83FE, size: 0x8, addend: 0x0, symName: __ZNSt3__112basic_stringIcNS_11char_traitsIcEENS_9allocatorIcEEE15__set_long_sizeB7v160006Em, symObjAddr: 0x1C34, symBinAddr: 0x100002BFC, symSize: 0x38 }
  - { offsetInCU: 0x8432, offset: 0x8432, size: 0x8, addend: 0x0, symName: __ZNSt3__122__compressed_pair_elemINS_12basic_stringIcNS_11char_traitsIcEENS_9allocatorIcEEE5__repELi0ELb0EE5__getB7v160006Ev, symObjAddr: 0x1C6C, symBinAddr: 0x100002C34, symSize: 0x14 }
  - { offsetInCU: 0x8457, offset: 0x8457, size: 0x8, addend: 0x0, symName: __ZNSt3__112basic_stringIcNS_11char_traitsIcEENS_9allocatorIcEEE10__align_itB7v160006ILm16EEEmm, symObjAddr: 0x1C80, symBinAddr: 0x100002C48, symSize: 0x1C }
  - { offsetInCU: 0x8485, offset: 0x8485, size: 0x8, addend: 0x0, symName: __ZNSt3__19allocatorIcE8allocateB7v160006Em, symObjAddr: 0x1C9C, symBinAddr: 0x100002C64, symSize: 0x84 }
  - { offsetInCU: 0x84C2, offset: 0x84C2, size: 0x8, addend: 0x0, symName: __ZNSt3__116allocator_traitsINS_9allocatorIcEEE8max_sizeB7v160006IS2_vEEmRKS2_, symObjAddr: 0x1D20, symBinAddr: 0x100002CE8, symSize: 0x24 }
  - { offsetInCU: 0x84F0, offset: 0x84F0, size: 0x8, addend: 0x0, symName: __ZNKSt3__19allocatorIcE8max_sizeB7v160006Ev, symObjAddr: 0x1DA0, symBinAddr: 0x100002D68, symSize: 0x14 }
  - { offsetInCU: 0x8515, offset: 0x8515, size: 0x8, addend: 0x0, symName: __ZNSt3__117__compressed_pairINS_12basic_stringIcNS_11char_traitsIcEENS_9allocatorIcEEE5__repES5_E6secondB7v160006Ev, symObjAddr: 0x1DD8, symBinAddr: 0x100002DA0, symSize: 0x24 }
  - { offsetInCU: 0x853A, offset: 0x853A, size: 0x8, addend: 0x0, symName: __ZNSt3__122__compressed_pair_elemINS_9allocatorIcEELi1ELb1EE5__getB7v160006Ev, symObjAddr: 0x1DFC, symBinAddr: 0x100002DC4, symSize: 0x14 }
  - { offsetInCU: 0x855F, offset: 0x855F, size: 0x8, addend: 0x0, symName: __ZNKSt3__19basic_iosIcNS_11char_traitsIcEEE5widenB7v160006Ec, symObjAddr: 0x1E10, symBinAddr: 0x100002DD8, symSize: 0x8C }
  - { offsetInCU: 0x85CC, offset: 0x85CC, size: 0x8, addend: 0x0, symName: __ZNKSt3__15ctypeIcE5widenB7v160006Ec, symObjAddr: 0x1EC8, symBinAddr: 0x100002E90, symSize: 0x38 }
  - { offsetInCU: 0x8600, offset: 0x8600, size: 0x8, addend: 0x0, symName: __ZNSt3__111char_traitsIcE6lengthEPKc, symObjAddr: 0x20F4, symBinAddr: 0x1000030BC, symSize: 0x48 }
  - { offsetInCU: 0x8641, offset: 0x8641, size: 0x8, addend: 0x0, symName: __ZNKSt3__113basic_ostreamIcNS_11char_traitsIcEEE6sentrycvbB7v160006Ev, symObjAddr: 0x213C, symBinAddr: 0x100003104, symSize: 0x1C }
  - { offsetInCU: 0x8665, offset: 0x8665, size: 0x8, addend: 0x0, symName: __ZNSt3__119ostreambuf_iteratorIcNS_11char_traitsIcEEEC1B7v160006ERNS_13basic_ostreamIcS2_EE, symObjAddr: 0x23A0, symBinAddr: 0x100003368, symSize: 0x34 }
  - { offsetInCU: 0x869C, offset: 0x869C, size: 0x8, addend: 0x0, symName: __ZNKSt3__18ios_base5flagsB7v160006Ev, symObjAddr: 0x23D4, symBinAddr: 0x10000339C, symSize: 0x18 }
  - { offsetInCU: 0x86C3, offset: 0x86C3, size: 0x8, addend: 0x0, symName: __ZNKSt3__19basic_iosIcNS_11char_traitsIcEEE4fillB7v160006Ev, symObjAddr: 0x23EC, symBinAddr: 0x1000033B4, symSize: 0x64 }
  - { offsetInCU: 0x86EA, offset: 0x86EA, size: 0x8, addend: 0x0, symName: __ZNKSt3__119ostreambuf_iteratorIcNS_11char_traitsIcEEE6failedB7v160006Ev, symObjAddr: 0x2450, symBinAddr: 0x100003418, symSize: 0x24 }
  - { offsetInCU: 0x870F, offset: 0x870F, size: 0x8, addend: 0x0, symName: __ZNSt3__19basic_iosIcNS_11char_traitsIcEEE8setstateB7v160006Ej, symObjAddr: 0x2474, symBinAddr: 0x10000343C, symSize: 0x2C }
  - { offsetInCU: 0x8743, offset: 0x8743, size: 0x8, addend: 0x0, symName: __ZNKSt3__18ios_base5widthB7v160006Ev, symObjAddr: 0x24A0, symBinAddr: 0x100003468, symSize: 0x18 }
  - { offsetInCU: 0x876A, offset: 0x876A, size: 0x8, addend: 0x0, symName: __ZNSt3__115basic_streambufIcNS_11char_traitsIcEEE5sputnB7v160006EPKcl, symObjAddr: 0x24B8, symBinAddr: 0x100003480, symSize: 0x3C }
  - { offsetInCU: 0x87AA, offset: 0x87AA, size: 0x8, addend: 0x0, symName: __ZNSt3__112basic_stringIcNS_11char_traitsIcEENS_9allocatorIcEEEC1B7v160006Emc, symObjAddr: 0x24F4, symBinAddr: 0x1000034BC, symSize: 0x3C }
  - { offsetInCU: 0x87F1, offset: 0x87F1, size: 0x8, addend: 0x0, symName: __ZNKSt3__112basic_stringIcNS_11char_traitsIcEENS_9allocatorIcEEE4dataB7v160006Ev, symObjAddr: 0x2530, symBinAddr: 0x1000034F8, symSize: 0x28 }
  - { offsetInCU: 0x8816, offset: 0x8816, size: 0x8, addend: 0x0, symName: __ZNSt3__18ios_base5widthB7v160006El, symObjAddr: 0x2558, symBinAddr: 0x100003520, symSize: 0x2C }
  - { offsetInCU: 0x885A, offset: 0x885A, size: 0x8, addend: 0x0, symName: __ZNSt3__112basic_stringIcNS_11char_traitsIcEENS_9allocatorIcEEEC2B7v160006Emc, symObjAddr: 0x2584, symBinAddr: 0x10000354C, symSize: 0x54 }
  - { offsetInCU: 0x88A1, offset: 0x88A1, size: 0x8, addend: 0x0, symName: __ZNKSt3__112basic_stringIcNS_11char_traitsIcEENS_9allocatorIcEEE13__get_pointerB7v160006Ev, symObjAddr: 0x25EC, symBinAddr: 0x1000035B4, symSize: 0x54 }
  - { offsetInCU: 0x88C6, offset: 0x88C6, size: 0x8, addend: 0x0, symName: __ZNKSt3__112basic_stringIcNS_11char_traitsIcEENS_9allocatorIcEEE9__is_longB7v160006Ev, symObjAddr: 0x2640, symBinAddr: 0x100003608, symSize: 0x74 }
  - { offsetInCU: 0x88EB, offset: 0x88EB, size: 0x8, addend: 0x0, symName: __ZNKSt3__112basic_stringIcNS_11char_traitsIcEENS_9allocatorIcEEE18__get_long_pointerB7v160006Ev, symObjAddr: 0x26B4, symBinAddr: 0x10000367C, symSize: 0x28 }
  - { offsetInCU: 0x8910, offset: 0x8910, size: 0x8, addend: 0x0, symName: __ZNKSt3__112basic_stringIcNS_11char_traitsIcEENS_9allocatorIcEEE19__get_short_pointerB7v160006Ev, symObjAddr: 0x26DC, symBinAddr: 0x1000036A4, symSize: 0x28 }
  - { offsetInCU: 0x8935, offset: 0x8935, size: 0x8, addend: 0x0, symName: __ZNKSt3__117__compressed_pairINS_12basic_stringIcNS_11char_traitsIcEENS_9allocatorIcEEE5__repES5_E5firstB7v160006Ev, symObjAddr: 0x2704, symBinAddr: 0x1000036CC, symSize: 0x24 }
  - { offsetInCU: 0x895A, offset: 0x895A, size: 0x8, addend: 0x0, symName: __ZNKSt3__122__compressed_pair_elemINS_12basic_stringIcNS_11char_traitsIcEENS_9allocatorIcEEE5__repELi0ELb0EE5__getB7v160006Ev, symObjAddr: 0x2728, symBinAddr: 0x1000036F0, symSize: 0x14 }
  - { offsetInCU: 0x897F, offset: 0x897F, size: 0x8, addend: 0x0, symName: __ZNSt3__114pointer_traitsIPKcE10pointer_toB7v160006ERS1_, symObjAddr: 0x273C, symBinAddr: 0x100003704, symSize: 0x14 }
  - { offsetInCU: 0x89A1, offset: 0x89A1, size: 0x8, addend: 0x0, symName: __ZNSt3__119ostreambuf_iteratorIcNS_11char_traitsIcEEEC2B7v160006ERNS_13basic_ostreamIcS2_EE, symObjAddr: 0x2750, symBinAddr: 0x100003718, symSize: 0x68 }
  - { offsetInCU: 0x89D8, offset: 0x89D8, size: 0x8, addend: 0x0, symName: __ZNKSt3__19basic_iosIcNS_11char_traitsIcEEE5rdbufB7v160006Ev, symObjAddr: 0x27B8, symBinAddr: 0x100003780, symSize: 0x24 }
  - { offsetInCU: 0x89FF, offset: 0x89FF, size: 0x8, addend: 0x0, symName: __ZNKSt3__18ios_base5rdbufB7v160006Ev, symObjAddr: 0x27DC, symBinAddr: 0x1000037A4, symSize: 0x18 }
  - { offsetInCU: 0x8A24, offset: 0x8A24, size: 0x8, addend: 0x0, symName: __ZNSt3__111char_traitsIcE11eq_int_typeEii, symObjAddr: 0x27F4, symBinAddr: 0x1000037BC, symSize: 0x28 }
  - { offsetInCU: 0x8A55, offset: 0x8A55, size: 0x8, addend: 0x0, symName: __ZNSt3__111char_traitsIcE3eofEv, symObjAddr: 0x281C, symBinAddr: 0x1000037E4, symSize: 0x8 }
  - { offsetInCU: 0x8A69, offset: 0x8A69, size: 0x8, addend: 0x0, symName: __ZNSt3__18ios_base8setstateB7v160006Ej, symObjAddr: 0x2824, symBinAddr: 0x1000037EC, symSize: 0x34 }
  - { offsetInCU: 0x8A9F, offset: 0x8A9F, size: 0x8, addend: 0x0, symName: __ZNKSt3__112basic_stringIcNS_11char_traitsIcEENS_9allocatorIcEEE4sizeB7v160006Ev, symObjAddr: 0x287C, symBinAddr: 0x100003844, symSize: 0x54 }
  - { offsetInCU: 0x8AC4, offset: 0x8AC4, size: 0x8, addend: 0x0, symName: __ZNKSt3__112basic_stringIcNS_11char_traitsIcEENS_9allocatorIcEEE15__get_long_sizeB7v160006Ev, symObjAddr: 0x28D0, symBinAddr: 0x100003898, symSize: 0x28 }
  - { offsetInCU: 0x8AE9, offset: 0x8AE9, size: 0x8, addend: 0x0, symName: __ZNKSt3__112basic_stringIcNS_11char_traitsIcEENS_9allocatorIcEEE16__get_short_sizeB7v160006Ev, symObjAddr: 0x28F8, symBinAddr: 0x1000038C0, symSize: 0x34 }
  - { offsetInCU: 0x8B0D, offset: 0x8B0D, size: 0x8, addend: 0x0, symName: __ZNSt3__112basic_stringIcNS_11char_traitsIcEENS_9allocatorIcEEEC2B7v160006IDnEEPKc, symObjAddr: 0x292C, symBinAddr: 0x1000038F4, symSize: 0x60 }
...
